target datalayout = "e-m:e-p270:32:32-p271:32:32-p272:64:64-i64:64-i128:128-f80:128-n8:16:32:64-S128"
target triple = "x86_64-pc-linux-gnu"

%struct.FunctionCallInfoBaseData = type { ptr, ptr, ptr, i32, i8, i16, [0 x %struct.NullableDatum] }
%struct.NullableDatum = type { i64, i8 }

@.str.2 = private unnamed_addr constant [13 x i8] c"arrayfuncs.c\00", align 1
@.str.41 = private unnamed_addr constant [50 x i8] c"dimension array or low bound array cannot be null\00", align 1
@__func__.array_fill_with_lower_bounds = private unnamed_addr constant [29 x i8] c"array_fill_with_lower_bounds\00", align 1
@.str.42 = private unnamed_addr constant [39 x i8] c"could not determine data type of input\00", align 1

; Function Attrs: inlinehint nounwind uwtable
define internal i64 @PointerGetDatum(ptr noundef %0) #2 {
  %2 = alloca ptr, align 8
  store ptr %0, ptr %2, align 8
  %3 = load ptr, ptr %2, align 8
  %4 = ptrtoint ptr %3 to i64
  ret i64 %4
}

; Function Attrs: inlinehint nounwind uwtable
define internal ptr @DatumGetPointer(i64 noundef %0) #2 {
  %2 = alloca i64, align 8
  store i64 %0, ptr %2, align 8
  %3 = load i64, ptr %2, align 8
  %4 = inttoptr i64 %3 to ptr
  ret ptr %4
}

; Function Attrs: nounwind uwtable
define dso_local i64 @array_fill_with_lower_bounds(ptr noundef %0) #0 {
  %2 = alloca ptr, align 8
  %3 = alloca ptr, align 8
  %4 = alloca ptr, align 8
  %5 = alloca ptr, align 8
  %6 = alloca i32, align 4
  %7 = alloca i64, align 8
  %8 = alloca i8, align 1
  store ptr %0, ptr %2, align 8
  call void @llvm.lifetime.start.p0(i64 8, ptr %3) #11
  call void @llvm.lifetime.start.p0(i64 8, ptr %4) #11
  call void @llvm.lifetime.start.p0(i64 8, ptr %5) #11
  call void @llvm.lifetime.start.p0(i64 4, ptr %6) #11
  call void @llvm.lifetime.start.p0(i64 8, ptr %7) #11
  call void @llvm.lifetime.start.p0(i64 1, ptr %8) #11
  %9 = load ptr, ptr %2, align 8
  %10 = getelementptr inbounds nuw %struct.FunctionCallInfoBaseData, ptr %9, i32 0, i32 6
  %11 = getelementptr inbounds [0 x %struct.NullableDatum], ptr %10, i64 0, i64 1
  %12 = getelementptr inbounds nuw %struct.NullableDatum, ptr %11, i32 0, i32 1
  %13 = load i8, ptr %12, align 8, !range !4, !noundef !5
  %14 = trunc i8 %13 to i1
  br i1 %14, label %22, label %15

15:                                               ; preds = %1
  %16 = load ptr, ptr %2, align 8
  %17 = getelementptr inbounds nuw %struct.FunctionCallInfoBaseData, ptr %16, i32 0, i32 6
  %18 = getelementptr inbounds [0 x %struct.NullableDatum], ptr %17, i64 0, i64 2
  %19 = getelementptr inbounds nuw %struct.NullableDatum, ptr %18, i32 0, i32 1
  %20 = load i8, ptr %19, align 8, !range !4, !noundef !5
  %21 = trunc i8 %20 to i1
  br i1 %21, label %22, label %34

22:                                               ; preds = %15, %1
  br label %23

23:                                               ; preds = %22
  br i1 true, label %24, label %26

24:                                               ; preds = %23
  %25 = call zeroext i1 @errstart_cold(i32 noundef 21, ptr noundef null) #13
  br i1 %25, label %28, label %31

26:                                               ; preds = %23
  %27 = call zeroext i1 @errstart(i32 noundef 21, ptr noundef null)
  br i1 %27, label %28, label %31

28:                                               ; preds = %26, %24
  %29 = call i32 @errcode(i32 noundef 67108994)
  %30 = call i32 (ptr, ...) @errmsg(ptr noundef @.str.41)
  call void @errfinish(ptr noundef @.str.2, i32 noundef 6002, ptr noundef @__func__.array_fill_with_lower_bounds)
  br label %31

31:                                               ; preds = %28, %26, %24
  unreachable

32:                                               ; No predecessors!
  br label %33

33:                                               ; preds = %32
  br label %34

34:                                               ; preds = %33, %15
  %35 = load ptr, ptr %2, align 8
  %36 = getelementptr inbounds nuw %struct.FunctionCallInfoBaseData, ptr %35, i32 0, i32 6
  %37 = getelementptr inbounds [0 x %struct.NullableDatum], ptr %36, i64 0, i64 1
  %38 = getelementptr inbounds nuw %struct.NullableDatum, ptr %37, i32 0, i32 0
  %39 = load i64, ptr %38, align 8
  %40 = call ptr @DatumGetPointer(i64 noundef %39)
  %41 = call ptr @pg_detoast_datum(ptr noundef %40)
  store ptr %41, ptr %3, align 8
  %42 = load ptr, ptr %2, align 8
  %43 = getelementptr inbounds nuw %struct.FunctionCallInfoBaseData, ptr %42, i32 0, i32 6
  %44 = getelementptr inbounds [0 x %struct.NullableDatum], ptr %43, i64 0, i64 2
  %45 = getelementptr inbounds nuw %struct.NullableDatum, ptr %44, i32 0, i32 0
  %46 = load i64, ptr %45, align 8
  %47 = call ptr @DatumGetPointer(i64 noundef %46)
  %48 = call ptr @pg_detoast_datum(ptr noundef %47)
  store ptr %48, ptr %4, align 8
  %49 = load ptr, ptr %2, align 8
  %50 = getelementptr inbounds nuw %struct.FunctionCallInfoBaseData, ptr %49, i32 0, i32 6
  %51 = getelementptr inbounds [0 x %struct.NullableDatum], ptr %50, i64 0, i64 0
  %52 = getelementptr inbounds nuw %struct.NullableDatum, ptr %51, i32 0, i32 1
  %53 = load i8, ptr %52, align 8, !range !4, !noundef !5
  %54 = trunc i8 %53 to i1
  br i1 %54, label %61, label %55

55:                                               ; preds = %34
  %56 = load ptr, ptr %2, align 8
  %57 = getelementptr inbounds nuw %struct.FunctionCallInfoBaseData, ptr %56, i32 0, i32 6
  %58 = getelementptr inbounds [0 x %struct.NullableDatum], ptr %57, i64 0, i64 0
  %59 = getelementptr inbounds nuw %struct.NullableDatum, ptr %58, i32 0, i32 0
  %60 = load i64, ptr %59, align 8
  store i64 %60, ptr %7, align 8
  store i8 0, ptr %8, align 1
  br label %62

61:                                               ; preds = %34
  store i64 0, ptr %7, align 8
  store i8 1, ptr %8, align 1
  br label %62

62:                                               ; preds = %61, %55
  %63 = load ptr, ptr %2, align 8
  %64 = getelementptr inbounds nuw %struct.FunctionCallInfoBaseData, ptr %63, i32 0, i32 0
  %65 = load ptr, ptr %64, align 8
  %66 = call i32 @get_fn_expr_argtype(ptr noundef %65, i32 noundef 0)
  store i32 %66, ptr %6, align 4
  %67 = load i32, ptr %6, align 4
  %68 = icmp ne i32 %67, 0
  br i1 %68, label %80, label %69

69:                                               ; preds = %62
  br label %70

70:                                               ; preds = %69
  br i1 true, label %71, label %73

71:                                               ; preds = %70
  %72 = call zeroext i1 @errstart_cold(i32 noundef 21, ptr noundef null) #13
  br i1 %72, label %75, label %77

73:                                               ; preds = %70
  %74 = call zeroext i1 @errstart(i32 noundef 21, ptr noundef null)
  br i1 %74, label %75, label %77

75:                                               ; preds = %73, %71
  %76 = call i32 (ptr, ...) @errmsg_internal(ptr noundef @.str.42)
  call void @errfinish(ptr noundef @.str.2, i32 noundef 6020, ptr noundef @__func__.array_fill_with_lower_bounds)
  br label %77

77:                                               ; preds = %75, %73, %71
  unreachable

78:                                               ; No predecessors!
  br label %79

79:                                               ; preds = %78
  br label %80

80:                                               ; preds = %79, %62
  %81 = load ptr, ptr %3, align 8
  %82 = load ptr, ptr %4, align 8
  %83 = load i64, ptr %7, align 8
  %84 = load i8, ptr %8, align 1, !range !4, !noundef !5
  %85 = trunc i8 %84 to i1
  %86 = load i32, ptr %6, align 4
  %87 = load ptr, ptr %2, align 8
  %88 = call ptr @array_fill_internal(ptr noundef %81, ptr noundef %82, i64 noundef %83, i1 noundef zeroext %85, i32 noundef %86, ptr noundef %87)
  store ptr %88, ptr %5, align 8
  %89 = load ptr, ptr %5, align 8
  %90 = call i64 @PointerGetDatum(ptr noundef %89)
  call void @llvm.lifetime.end.p0(i64 1, ptr %8) #11
  call void @llvm.lifetime.end.p0(i64 8, ptr %7) #11
  call void @llvm.lifetime.end.p0(i64 4, ptr %6) #11
  call void @llvm.lifetime.end.p0(i64 8, ptr %5) #11
  call void @llvm.lifetime.end.p0(i64 8, ptr %4) #11
  call void @llvm.lifetime.end.p0(i64 8, ptr %3) #11
  ret i64 %90
}