; Function Attrs: nounwind uwtable
define dso_local noundef i64 @array_fill_with_lower_bounds(ptr noundef readonly captures(none) %0) local_unnamed_addr #0 {
  %2 = getelementptr inbounds nuw i8, ptr %0, i64 32
  %3 = getelementptr inbounds nuw i8, ptr %0, i64 48
  %4 = getelementptr inbounds nuw i8, ptr %0, i64 56
  %5 = load i8, ptr %4, align 8, !range !4, !noundef !5
  %6 = trunc nuw i8 %5 to i1
  br i1 %6, label %11, label %7

7:                                                ; preds = %1
  %8 = getelementptr inbounds nuw i8, ptr %0, i64 72
  %9 = load i8, ptr %8, align 8, !range !4, !noundef !5
  %10 = trunc nuw i8 %9 to i1
  br i1 %10, label %11, label %15

11:                                               ; preds = %7, %1
  %12 = tail call zeroext i1 @errstart_cold(i32 noundef 21, ptr noundef null) #20
  tail call void @llvm.assume(i1 %12)
  %13 = tail call i32 @errcode(i32 noundef 67108994) #18
  %14 = tail call i32 (ptr, ...) @errmsg(ptr noundef nonnull @.str.41) #18
  tail call void @errfinish(ptr noundef nonnull @.str.2, i32 noundef 6002, ptr noundef nonnull @__func__.array_fill_with_lower_bounds) #18
  unreachable

15:                                               ; preds = %7
  %16 = getelementptr inbounds nuw i8, ptr %0, i64 64
  %17 = load i64, ptr %3, align 8
  %18 = inttoptr i64 %17 to ptr
  %19 = tail call ptr @pg_detoast_datum(ptr noundef %18) #18
  %20 = load i64, ptr %16, align 8
  %21 = inttoptr i64 %20 to ptr
  %22 = tail call ptr @pg_detoast_datum(ptr noundef %21) #18
  %23 = getelementptr inbounds nuw i8, ptr %0, i64 40
  %24 = load i8, ptr %23, align 8, !range !4, !noundef !5
  %25 = trunc nuw i8 %24 to i1
  br i1 %25, label %28, label %26

26:                                               ; preds = %15
  %27 = load i64, ptr %2, align 8
  br label %28

28:                                               ; preds = %15, %26
  %.014 = phi i64 [ %27, %26 ], [ 0, %15 ]
  %29 = load ptr, ptr %0, align 8
  %30 = tail call i32 @get_fn_expr_argtype(ptr noundef %29, i32 noundef 0) #18
  %.not = icmp eq i32 %30, 0
  br i1 %.not, label %31, label %34

31:                                               ; preds = %28
  %32 = tail call zeroext i1 @errstart_cold(i32 noundef 21, ptr noundef null) #20
  tail call void @llvm.assume(i1 %32)
  %33 = tail call i32 (ptr, ...) @errmsg_internal(ptr noundef nonnull @.str.42) #18
  tail call void @errfinish(ptr noundef nonnull @.str.2, i32 noundef 6020, ptr noundef nonnull @__func__.array_fill_with_lower_bounds) #18
  unreachable

34:                                               ; preds = %28
  %35 = tail call fastcc ptr @array_fill_internal(ptr noundef %19, ptr noundef %22, i64 noundef %.014, i1 noundef zeroext %25, i32 noundef %30, ptr noundef nonnull %0)
  %36 = ptrtoint ptr %35 to i64
  ret i64 %36
}